target datalayout = "e-m:e-p270:32:32-p271:32:32-p272:64:64-i64:64-i128:128-f80:128-n8:16:32:64-S128"
target triple = "x86_64-pc-linux-gnu"

%"class.llvm::StringRef" = type { ptr, i64 }
%"class.llvm::SmallPtrSetImplBase.base" = type <{ ptr, ptr, i32, i32, i32 }>
%"class.llvm::ilist_node_base" = type { %"class.llvm::ilist_detail::node_base_prevnext" }
%"class.llvm::ilist_detail::node_base_prevnext" = type { ptr, ptr }
%"class.llvm::SelectionDAGISel" = type { ptr, ptr, ptr, %"class.std::unique_ptr", ptr, ptr, ptr, ptr, ptr, %"class.std::unique_ptr.33", ptr, ptr, ptr, ptr, i32, ptr, ptr, i8, %"class.llvm::SmallPtrSet.41", %"class.std::unique_ptr.44", i8, %"class.llvm::StringRef", i32, %"class.std::vector" }
%"class.std::unique_ptr" = type { %"struct.std::__uniq_ptr_data" }
%"struct.std::__uniq_ptr_data" = type { %"class.std::__uniq_ptr_impl" }
%"class.std::__uniq_ptr_impl" = type { %"class.std::tuple" }
%"class.std::tuple" = type { %"struct.std::_Tuple_impl" }
%"struct.std::_Tuple_impl" = type { %"struct.std::_Head_base.32" }
%"struct.std::_Head_base.32" = type { ptr }
%"class.std::unique_ptr.33" = type { %"struct.std::__uniq_ptr_data.34" }
%"struct.std::__uniq_ptr_data.34" = type { %"class.std::__uniq_ptr_impl.35" }
%"class.std::__uniq_ptr_impl.35" = type { %"class.std::tuple.36" }
%"class.std::tuple.36" = type { %"struct.std::_Tuple_impl.37" }
%"struct.std::_Tuple_impl.37" = type { %"struct.std::_Head_base.40" }
%"struct.std::_Head_base.40" = type { ptr }
%"class.llvm::SmallPtrSet.41" = type { %"class.llvm::SmallPtrSetImpl.base.43", [4 x ptr] }
%"class.llvm::SmallPtrSetImpl.base.43" = type { %"class.llvm::SmallPtrSetImplBase.base" }
%"class.std::unique_ptr.44" = type { %"struct.std::__uniq_ptr_data.45" }
%"struct.std::__uniq_ptr_data.45" = type { %"class.std::__uniq_ptr_impl.46" }
%"class.std::__uniq_ptr_impl.46" = type { %"class.std::tuple.47" }
%"class.std::tuple.47" = type { %"struct.std::_Tuple_impl.48" }
%"struct.std::_Tuple_impl.48" = type { %"struct.std::_Head_base.51" }
%"struct.std::_Head_base.51" = type { ptr }
%"class.std::vector" = type { %"struct.std::_Vector_base" }
%"struct.std::_Vector_base" = type { %"struct.std::_Vector_base<unsigned int, std::allocator<unsigned int>>::_Vector_impl" }
%"struct.std::_Vector_base<unsigned int, std::allocator<unsigned int>>::_Vector_impl" = type { %"struct.std::_Vector_base<unsigned int, std::allocator<unsigned int>>::_Vector_impl_data" }
%"struct.std::_Vector_base<unsigned int, std::allocator<unsigned int>>::_Vector_impl_data" = type { ptr, ptr, ptr }
%"class.llvm::SDNode" = type { %"class.llvm::FoldingSetBase::Node", %"class.llvm::ilist_node.323", i32, %"struct.llvm::SDNodeFlags", %union.anon.326, i16, i32, ptr, ptr, ptr, i16, i16, i32, %"class.llvm::DebugLoc", i32, i32 }
%"class.llvm::FoldingSetBase::Node" = type { ptr }
%"class.llvm::ilist_node.323" = type { %"class.llvm::ilist_node_impl.324" }
%"class.llvm::ilist_node_impl.324" = type { %"class.llvm::ilist_node_base" }
%"struct.llvm::SDNodeFlags" = type { i16 }
%union.anon.326 = type { %"class.llvm::SDNode::LSBaseSDNodeBitfields" }
%"class.llvm::SDNode::LSBaseSDNodeBitfields" = type { i16 }
%"class.llvm::DebugLoc" = type { %"class.llvm::TypedTrackingMDRef" }
%"class.llvm::TypedTrackingMDRef" = type { %"class.llvm::TrackingMDRef" }
%"class.llvm::TrackingMDRef" = type { ptr }
%"class.llvm::MCInstrInfo" = type <{ ptr, ptr, ptr, ptr, ptr, i32, [4 x i8] }>
%"class.llvm::MCInstrDesc" = type { i16, i16, i8, i8, i16, i8, i8, i16, i16, i64, i64 }

; Function Attrs: mustprogress nounwind uwtable
define linkonce_odr hidden noundef zeroext i1 @_ZNK4llvm6SDNode22isTargetStrictFPOpcodeEv(ptr noundef nonnull align 8 dereferenceable(88) %0) #1 comdat align 2 {
  %2 = alloca ptr, align 8
  store ptr %0, ptr %2, align 8
  %3 = load ptr, ptr %2, align 8
  %4 = getelementptr inbounds nuw %"class.llvm::SDNode", ptr %3, i32 0, i32 2
  %5 = load i32, ptr %4, align 8
  %6 = icmp sge i32 %5, 891
  ret i1 %6
}

; Function Attrs: mustprogress nounwind uwtable
define linkonce_odr hidden noundef zeroext i1 @_ZNK4llvm6SDNode14isTargetOpcodeEv(ptr noundef nonnull align 8 dereferenceable(88) %0) #1 comdat align 2 {
  %2 = alloca ptr, align 8
  store ptr %0, ptr %2, align 8
  %3 = load ptr, ptr %2, align 8
  %4 = getelementptr inbounds nuw %"class.llvm::SDNode", ptr %3, i32 0, i32 2
  %5 = load i32, ptr %4, align 8
  %6 = icmp sge i32 %5, 491
  ret i1 %6
}

; Function Attrs: mustprogress nounwind uwtable
define linkonce_odr hidden noundef zeroext i1 @_ZNK4llvm11MCInstrDesc19mayRaiseFPExceptionEv(ptr noundef nonnull align 8 dereferenceable(32) %0) #1 comdat align 2 {
  %2 = alloca ptr, align 8
  store ptr %0, ptr %2, align 8
  %3 = load ptr, ptr %2, align 8
  %4 = getelementptr inbounds nuw %"class.llvm::MCInstrDesc", ptr %3, i32 0, i32 9
  %5 = load i64, ptr %4, align 8
  %6 = and i64 %5, 2097152
  %7 = icmp ne i64 %6, 0
  ret i1 %7
}

; Function Attrs: mustprogress nounwind uwtable
define linkonce_odr hidden noundef nonnull align 8 dereferenceable(32) ptr @_ZNK4llvm11MCInstrInfo3getEj(ptr noundef nonnull align 8 dereferenceable(44) %0, i32 noundef %1) #1 comdat align 2 {
  %3 = alloca ptr, align 8
  %4 = alloca i32, align 4
  store ptr %0, ptr %3, align 8
  store i32 %1, ptr %4, align 4
  %5 = load ptr, ptr %3, align 8
  %6 = getelementptr inbounds nuw %"class.llvm::MCInstrInfo", ptr %5, i32 0, i32 0
  %7 = load ptr, ptr %6, align 8
  %8 = load i32, ptr %4, align 4
  %9 = zext i32 %8 to i64
  %10 = sub i64 0, %9
  %11 = getelementptr inbounds %"class.llvm::MCInstrDesc", ptr %7, i64 %10
  ret ptr %11
}

; Function Attrs: mustprogress nounwind uwtable
define linkonce_odr hidden noundef i32 @_ZNK4llvm6SDNode16getMachineOpcodeEv(ptr noundef nonnull align 8 dereferenceable(88) %0) #1 comdat align 2 {
  %2 = alloca ptr, align 8
  store ptr %0, ptr %2, align 8
  %3 = load ptr, ptr %2, align 8
  %4 = getelementptr inbounds nuw %"class.llvm::SDNode", ptr %3, i32 0, i32 2
  %5 = load i32, ptr %4, align 8
  %6 = xor i32 %5, -1
  ret i32 %6
}

; Function Attrs: mustprogress nounwind uwtable
define linkonce_odr hidden noundef zeroext i1 @_ZNK4llvm6SDNode15isMachineOpcodeEv(ptr noundef nonnull align 8 dereferenceable(88) %0) #1 comdat align 2 {
  %2 = alloca ptr, align 8
  store ptr %0, ptr %2, align 8
  %3 = load ptr, ptr %2, align 8
  %4 = getelementptr inbounds nuw %"class.llvm::SDNode", ptr %3, i32 0, i32 2
  %5 = load i32, ptr %4, align 8
  %6 = icmp slt i32 %5, 0
  ret i1 %6
}

; Function Attrs: mustprogress nounwind uwtable
define dso_local noundef zeroext i1 @_ZNK4llvm16SelectionDAGISel19mayRaiseFPExceptionEPNS_6SDNodeE(ptr noundef nonnull align 8 dereferenceable(272) %0, ptr noundef %1) #1 align 2 {
  %3 = alloca i1, align 1
  %4 = alloca ptr, align 8
  %5 = alloca ptr, align 8
  %6 = alloca ptr, align 8
  store ptr %0, ptr %4, align 8
  store ptr %1, ptr %5, align 8
  %7 = load ptr, ptr %4, align 8
  %8 = load ptr, ptr %5, align 8
  %9 = call noundef zeroext i1 @_ZNK4llvm6SDNode15isMachineOpcodeEv(ptr noundef nonnull align 8 dereferenceable(88) %8)
  br i1 %9, label %10, label %19

10:                                               ; preds = %2
  %11 = getelementptr inbounds nuw %"class.llvm::SelectionDAGISel", ptr %7, i32 0, i32 15
  %12 = load ptr, ptr %11, align 8
  %13 = getelementptr inbounds i8, ptr %12, i64 8
  %14 = load ptr, ptr %5, align 8
  %15 = call noundef i32 @_ZNK4llvm6SDNode16getMachineOpcodeEv(ptr noundef nonnull align 8 dereferenceable(88) %14)
  %16 = call noundef nonnull align 8 dereferenceable(32) ptr @_ZNK4llvm11MCInstrInfo3getEj(ptr noundef nonnull align 8 dereferenceable(44) %13, i32 noundef %15)
  store ptr %16, ptr %6, align 8
  %17 = load ptr, ptr %6, align 8
  %18 = call noundef zeroext i1 @_ZNK4llvm11MCInstrDesc19mayRaiseFPExceptionEv(ptr noundef nonnull align 8 dereferenceable(32) %17)
  store i1 %18, ptr %3, align 1
  br label %28

19:                                               ; preds = %2
  %20 = load ptr, ptr %5, align 8
  %21 = call noundef zeroext i1 @_ZNK4llvm6SDNode14isTargetOpcodeEv(ptr noundef nonnull align 8 dereferenceable(88) %20)
  br i1 %21, label %22, label %25

22:                                               ; preds = %19
  %23 = load ptr, ptr %5, align 8
  %24 = call noundef zeroext i1 @_ZNK4llvm6SDNode22isTargetStrictFPOpcodeEv(ptr noundef nonnull align 8 dereferenceable(88) %23)
  store i1 %24, ptr %3, align 1
  br label %28

25:                                               ; preds = %19
  %26 = load ptr, ptr %5, align 8
  %27 = call noundef zeroext i1 @_ZN4llvm6SDNode16isStrictFPOpcodeEv(ptr noundef nonnull align 8 dereferenceable(88) %26)
  store i1 %27, ptr %3, align 1
  br label %28

28:                                               ; preds = %25, %22, %10
  %29 = load i1, ptr %3, align 1
  ret i1 %29
}