; Function Attrs: mustprogress nounwind uwtable
define dso_local noundef zeroext i1 @_ZNK4llvm16SelectionDAGISel19mayRaiseFPExceptionEPNS_6SDNodeE(ptr noundef nonnull readonly align 8 captures(none) dereferenceable(272) %0, ptr noundef %1) local_unnamed_addr #0 align 2 {
  %3 = getelementptr inbounds nuw i8, ptr %1, i64 24
  %4 = load i32, ptr %3, align 8
  %5 = icmp slt i32 %4, 0
  br i1 %5, label %6, label %18

6:                                                ; preds = %2
  %7 = getelementptr inbounds nuw i8, ptr %0, i64 120
  %8 = load ptr, ptr %7, align 8
  %9 = getelementptr inbounds nuw i8, ptr %8, i64 8
  %10 = xor i32 %4, -1
  %11 = load ptr, ptr %9, align 8
  %12 = zext nneg i32 %10 to i64
  %13 = sub nsw i64 0, %12
  %14 = getelementptr inbounds %"class.llvm::MCInstrDesc", ptr %11, i64 %13, i32 9
  %15 = load i64, ptr %14, align 8
  %16 = and i64 %15, 2097152
  %17 = icmp ne i64 %16, 0
  br label %24

18:                                               ; preds = %2
  %19 = icmp samesign ugt i32 %4, 490
  br i1 %19, label %20, label %22

20:                                               ; preds = %18
  %21 = icmp samesign ugt i32 %4, 890
  br label %24

22:                                               ; preds = %18
  %23 = tail call noundef zeroext i1 @_ZN4llvm6SDNode16isStrictFPOpcodeEv(ptr noundef nonnull align 8 dereferenceable(88) %1)
  br label %24

24:                                               ; preds = %22, %20, %6
  %.0 = phi i1 [ %17, %6 ], [ %21, %20 ], [ %23, %22 ]
  ret i1 %.0
}